; Function Attrs: mustprogress nofree norecurse nosync nounwind willreturn memory(argmem: write) uwtable
define dso_local void @_ZN4Luau7CodeGen3X6413IrRegAllocX647freeRegENS1_11RegisterX64E(ptr nocapture noundef nonnull writeonly align 8 dereferenceable(256) %0, i8 %1) local_unnamed_addr #4 align 2 {
  %3 = and i8 %1, 7
  %4 = icmp eq i8 %3, 5
  %5 = lshr i8 %1, 3
  %6 = zext nneg i8 %5 to i64
  %. = select i1 %4, i64 108, i64 28
  %.9 = select i1 %4, i64 124, i64 44
  %7 = getelementptr inbounds i8, ptr %0, i64 %.
  %8 = getelementptr inbounds [16 x i8], ptr %7, i64 0, i64 %6
  store i8 1, ptr %8, align 1
  %9 = getelementptr inbounds i8, ptr %0, i64 %.9
  %10 = getelementptr inbounds [16 x i32], ptr %9, i64 0, i64 %6
  store i32 -1, ptr %10, align 4
  ret void
}